; Function Attrs: nounwind uwtable
define noalias nonnull ptr @l_List_forIn_x27_loop___at_Std_Time_PlainDateTime_ofTimestampAssumingUTC___spec__1___lambda__1(ptr noundef %0, ptr noundef %1, ptr noundef %2, ptr readnone captures(none) %3) local_unnamed_addr #1 {
  %5 = ptrtoint ptr %2 to i64
  %6 = and i64 %5, 1
  %.not.i = icmp eq i64 %6, 0
  br i1 %.not.i, label %.critedge.i, label %7, !prof !4

7:                                                ; preds = %4
  %8 = ptrtoint ptr %0 to i64
  %9 = and i64 %8, 1
  %.not7.i = icmp eq i64 %9, 0
  br i1 %.not7.i, label %.critedge.i, label %10, !prof !4

10:                                               ; preds = %7
  %11 = shl i64 %5, 31
  %12 = ashr i64 %11, 32
  %13 = shl i64 %8, 31
  %14 = ashr i64 %13, 32
  %15 = sub nsw i64 %12, %14
  %16 = add nsw i64 %15, 2147483648
  %17 = icmp ult i64 %16, 4294967296
  br i1 %17, label %18, label %23, !prof !12

18:                                               ; preds = %10
  %19 = shl nsw i64 %15, 1
  %20 = and i64 %19, 8589934590
  %21 = or disjoint i64 %20, 1
  %22 = inttoptr i64 %21 to ptr
  br label %lean_int_sub.exit

23:                                               ; preds = %10
  %24 = tail call ptr @lean_big_int64_to_int(i64 noundef range(i64 -4611686016279904256, 4611686018427387905) %15) #5
  br label %lean_int_sub.exit

.critedge.i:                                      ; preds = %7, %4
  %25 = tail call ptr @lean_int_big_sub(ptr noundef %2, ptr noundef %0) #5
  br label %lean_int_sub.exit

lean_int_sub.exit:                                ; preds = %18, %23, %.critedge.i
  %.0.i = phi ptr [ %25, %.critedge.i ], [ %22, %18 ], [ %24, %23 ]
  tail call void @lean_inc_heartbeat() #5
  %26 = tail call noalias ptr @mi_malloc_small(i64 noundef 24) #5
  %27 = icmp eq ptr %26, null
  br i1 %27, label %28, label %lean_alloc_ctor.exit

28:                                               ; preds = %lean_int_sub.exit
  tail call void @lean_internal_panic_out_of_memory() #6
  unreachable

lean_alloc_ctor.exit:                             ; preds = %lean_int_sub.exit
  %29 = getelementptr inbounds nuw i8, ptr %26, i64 4
  store i32 1, ptr %26, align 4, !tbaa !9
  store i32 131096, ptr %29, align 4
  %30 = getelementptr inbounds nuw i8, ptr %26, i64 8
  store ptr %1, ptr %30, align 8, !tbaa !5
  %31 = getelementptr inbounds nuw i8, ptr %26, i64 16
  store ptr %.0.i, ptr %31, align 8, !tbaa !5
  tail call void @lean_inc_heartbeat() #5
  %32 = tail call noalias ptr @mi_malloc_small(i64 noundef 16) #5
  %33 = icmp eq ptr %32, null
  br i1 %33, label %34, label %lean_alloc_ctor.exit9

34:                                               ; preds = %lean_alloc_ctor.exit
  tail call void @lean_internal_panic_out_of_memory() #6
  unreachable

lean_alloc_ctor.exit9:                            ; preds = %lean_alloc_ctor.exit
  %35 = getelementptr inbounds nuw i8, ptr %32, i64 4
  store i32 1, ptr %32, align 4, !tbaa !9
  store i32 16842768, ptr %35, align 4
  %36 = getelementptr inbounds nuw i8, ptr %32, i64 8
  store ptr %26, ptr %36, align 8, !tbaa !5
  ret ptr %32
}